; Function Attrs: mustprogress uwtable
define hidden noundef zeroext i1 @_ZN7nanogui7TextBox16delete_selectionEv(ptr noundef nonnull align 8 dereferenceable(440) %0) local_unnamed_addr #3 align 2 {
  %2 = getelementptr inbounds i8, ptr %0, i64 396
  %3 = load i32, ptr %2, align 4
  %4 = icmp sgt i32 %3, -1
  br i1 %4, label %5, label %22

5:                                                ; preds = %1
  %6 = getelementptr inbounds i8, ptr %0, i64 392
  %7 = load i32, ptr %6, align 8
  %spec.select = tail call i32 @llvm.smax.i32(i32 %7, i32 %3)
  %spec.select19 = tail call i32 @llvm.smin.i32(i32 %7, i32 %3)
  %8 = add nsw i32 %spec.select, -1
  %9 = icmp eq i32 %spec.select19, %8
  %10 = getelementptr inbounds i8, ptr %0, i64 328
  %11 = tail call ptr @_ZNSt7__cxx1112basic_stringIcSt11char_traitsIcESaIcEE5beginEv(ptr noundef nonnull align 8 dereferenceable(32) %10) #27
  %12 = sext i32 %spec.select19 to i64
  %13 = getelementptr inbounds i8, ptr %11, i64 %12
  br i1 %9, label %14, label %16

14:                                               ; preds = %5
  %15 = tail call ptr @_ZNSt7__cxx1112basic_stringIcSt11char_traitsIcESaIcEE5eraseEN9__gnu_cxx17__normal_iteratorIPKcS4_EE(ptr noundef nonnull align 8 dereferenceable(32) %10, ptr %13)
  br label %21

16:                                               ; preds = %5
  %17 = tail call ptr @_ZNSt7__cxx1112basic_stringIcSt11char_traitsIcESaIcEE5beginEv(ptr noundef nonnull align 8 dereferenceable(32) %10) #27
  %18 = zext nneg i32 %spec.select to i64
  %19 = getelementptr inbounds i8, ptr %17, i64 %18
  %20 = tail call ptr @_ZNSt7__cxx1112basic_stringIcSt11char_traitsIcESaIcEE5eraseEN9__gnu_cxx17__normal_iteratorIPKcS4_EES9_(ptr noundef nonnull align 8 dereferenceable(32) %10, ptr %13, ptr %19)
  br label %21

21:                                               ; preds = %16, %14
  store i32 %spec.select19, ptr %6, align 8
  store i32 -1, ptr %2, align 4
  br label %22

22:                                               ; preds = %1, %21
  ret i1 %4
}